target datalayout = "e-m:e-p270:32:32-p271:32:32-p272:64:64-i64:64-i128:128-f80:128-n8:16:32:64-S128"
target triple = "x86_64-pc-linux-gnu"

%struct.ge25519_p3 = type { [5 x i64], [5 x i64], [5 x i64], [5 x i64] }
%struct.ge25519_p2 = type { [5 x i64], [5 x i64], [5 x i64] }

; Function Attrs: alwaysinline nounwind
define internal ptr @memcpy.inline(ptr noalias nonnull %0, ptr noalias nonnull %1, i64 %2) #3 {
  %4 = alloca ptr, align 8
  %5 = alloca ptr, align 8
  %6 = alloca i64, align 8
  store ptr %0, ptr %4, align 8
  store ptr %1, ptr %5, align 8
  store i64 %2, ptr %6, align 8
  %7 = load ptr, ptr %4, align 8
  %8 = load ptr, ptr %5, align 8
  %9 = load i64, ptr %6, align 8
  %10 = load ptr, ptr %4, align 8
  %11 = call i64 @llvm.objectsize.i64.p0(ptr %10, i1 false, i1 true, i1 true)
  %12 = call ptr @__memcpy_chk(ptr noundef %7, ptr noundef %8, i64 noundef %9, i64 noundef %11) #8
  ret ptr %12
}

; Function Attrs: inlinehint nounwind ssp uwtable
define internal void @fe25519_copy(ptr noundef %0, ptr noundef %1) #2 {
  %3 = alloca ptr, align 8
  %4 = alloca ptr, align 8
  store ptr %0, ptr %3, align 8
  store ptr %1, ptr %4, align 8
  %5 = load ptr, ptr %3, align 8
  %6 = load ptr, ptr %4, align 8
  %7 = call ptr @memcpy.inline(ptr noundef %5, ptr noundef %6, i64 noundef 40) #8
  ret void
}

; Function Attrs: nounwind ssp uwtable
define hidden void @_sodium_ge25519_p2_to_p3(ptr noundef %0, ptr noundef %1) #0 {
  %3 = alloca ptr, align 8
  %4 = alloca ptr, align 8
  store ptr %0, ptr %3, align 8
  store ptr %1, ptr %4, align 8
  %5 = load ptr, ptr %3, align 8
  %6 = getelementptr inbounds nuw %struct.ge25519_p3, ptr %5, i32 0, i32 0
  %7 = getelementptr inbounds [5 x i64], ptr %6, i64 0, i64 0
  %8 = load ptr, ptr %4, align 8
  %9 = getelementptr inbounds nuw %struct.ge25519_p2, ptr %8, i32 0, i32 0
  %10 = getelementptr inbounds [5 x i64], ptr %9, i64 0, i64 0
  call void @fe25519_copy(ptr noundef %7, ptr noundef %10)
  %11 = load ptr, ptr %3, align 8
  %12 = getelementptr inbounds nuw %struct.ge25519_p3, ptr %11, i32 0, i32 1
  %13 = getelementptr inbounds [5 x i64], ptr %12, i64 0, i64 0
  %14 = load ptr, ptr %4, align 8
  %15 = getelementptr inbounds nuw %struct.ge25519_p2, ptr %14, i32 0, i32 1
  %16 = getelementptr inbounds [5 x i64], ptr %15, i64 0, i64 0
  call void @fe25519_copy(ptr noundef %13, ptr noundef %16)
  %17 = load ptr, ptr %3, align 8
  %18 = getelementptr inbounds nuw %struct.ge25519_p3, ptr %17, i32 0, i32 2
  %19 = getelementptr inbounds [5 x i64], ptr %18, i64 0, i64 0
  %20 = load ptr, ptr %4, align 8
  %21 = getelementptr inbounds nuw %struct.ge25519_p2, ptr %20, i32 0, i32 2
  %22 = getelementptr inbounds [5 x i64], ptr %21, i64 0, i64 0
  call void @fe25519_copy(ptr noundef %19, ptr noundef %22)
  %23 = load ptr, ptr %3, align 8
  %24 = getelementptr inbounds nuw %struct.ge25519_p3, ptr %23, i32 0, i32 3
  %25 = getelementptr inbounds [5 x i64], ptr %24, i64 0, i64 0
  %26 = load ptr, ptr %4, align 8
  %27 = getelementptr inbounds nuw %struct.ge25519_p2, ptr %26, i32 0, i32 0
  %28 = getelementptr inbounds [5 x i64], ptr %27, i64 0, i64 0
  %29 = load ptr, ptr %4, align 8
  %30 = getelementptr inbounds nuw %struct.ge25519_p2, ptr %29, i32 0, i32 1
  %31 = getelementptr inbounds [5 x i64], ptr %30, i64 0, i64 0
  call void @fe25519_mul(ptr noundef %25, ptr noundef %28, ptr noundef %31)
  ret void
}