; Function Attrs: nofree nounwind ssp memory(argmem: readwrite) uwtable
define hidden void @_sodium_ge25519_p2_to_p3(ptr noundef %0, ptr noundef readonly captures(none) %1) local_unnamed_addr #2 {
  tail call void @llvm.memcpy.p0.p0.i64(ptr noundef nonnull align 1 dereferenceable(40) %0, ptr noundef nonnull readonly align 1 dereferenceable(40) %1, i64 noundef 40, i1 noundef false) #12
  %3 = getelementptr inbounds nuw i8, ptr %0, i64 40
  %4 = getelementptr inbounds nuw i8, ptr %1, i64 40
  tail call void @llvm.memcpy.p0.p0.i64(ptr noundef nonnull align 1 dereferenceable(40) %3, ptr noundef nonnull readonly align 1 dereferenceable(40) %4, i64 noundef 40, i1 noundef false) #12
  %5 = getelementptr inbounds nuw i8, ptr %0, i64 80
  %6 = getelementptr inbounds nuw i8, ptr %1, i64 80
  tail call void @llvm.memcpy.p0.p0.i64(ptr noundef nonnull align 1 dereferenceable(40) %5, ptr noundef nonnull readonly align 1 dereferenceable(40) %6, i64 noundef 40, i1 noundef false) #12
  %7 = getelementptr inbounds nuw i8, ptr %0, i64 120
  tail call fastcc void @fe25519_mul(ptr noundef nonnull %7, ptr noundef nonnull %1, ptr noundef nonnull %4)
  ret void
}